target datalayout = "e-m:e-p270:32:32-p271:32:32-p272:64:64-i64:64-i128:128-f80:128-n8:16:32:64-S128"
target triple = "x86_64-pc-linux-gnu"

%class.QString = type { ptr }
%class.TFHandle = type <{ %class.Handle, i32, [4 x i8], ptr, i8, [7 x i8] }>
%class.Handle = type { %class.QGraphicsObject, %class.QColor, i32, ptr }
%class.QGraphicsObject = type { %class.QObject, %class.QGraphicsItem }
%class.QObject = type { ptr, %class.QScopedPointer }
%class.QScopedPointer = type { ptr }
%class.QGraphicsItem = type { ptr, %class.QScopedPointer.16 }
%class.QScopedPointer.16 = type { ptr }
%class.QColor = type <{ i32, %"union.QColor::CT", [2 x i8] }>
%"union.QColor::CT" = type { %struct.anon }
%struct.anon = type { i16, i16, i16, i16, i16 }
%"class.QMetaObject::Connection" = type { ptr }
%class.QualityMapperDialog = type { %class.QDockWidget, %"class.Ui::QualityMapperDialogClass", ptr, ptr, %class.QGraphicsScene, [3 x ptr], double, i8, i8, %class.QList, i32, ptr, ptr, ptr, %class.QGraphicsScene, ptr, [3 x %class.QList.22], ptr, %class.QString, %class.QList, %class.QList, i8, %class.QList.25, %class.QList, ptr, ptr }
%class.QDockWidget = type { %class.QWidget }
%class.QWidget = type { %class.QObject, %class.QPaintDevice, ptr }
%class.QPaintDevice = type { ptr, i16, ptr }
%"class.Ui::QualityMapperDialogClass" = type { %class.Ui_QualityMapperDialogClass }
%class.Ui_QualityMapperDialogClass = type { ptr, ptr, ptr, ptr, ptr, ptr, ptr, ptr, ptr, ptr, ptr, ptr, ptr, ptr, ptr, ptr, ptr, ptr, ptr, ptr, ptr, ptr, ptr, ptr, ptr, ptr, ptr, ptr, ptr, ptr, ptr, ptr, ptr, ptr, ptr, ptr, ptr, ptr, ptr, ptr, ptr, ptr, ptr, ptr, ptr, ptr, ptr, ptr, ptr, ptr, ptr, ptr, ptr, ptr, ptr, ptr, ptr, ptr, ptr, ptr, ptr, ptr, ptr, ptr, ptr, ptr, ptr, ptr }
%class.QGraphicsScene = type { %class.QObject }
%class.QList.22 = type { %union.anon.24 }
%union.anon.24 = type { %struct.QListData }
%struct.QListData = type { ptr }
%class.QList.25 = type { %union.anon.27 }
%union.anon.27 = type { %struct.QListData }
%class.QList = type { %union.anon }
%union.anon = type { %struct.QListData }

@.str.121 = private unnamed_addr constant [18 x i8] c"2handleReleased()\00", align 1
@.str.122 = private unnamed_addr constant [20 x i8] c"1meshColorPreview()\00", align 1
@.str.138 = private unnamed_addr constant [28 x i8] c"2positionChanged(TFHandle*)\00", align 1
@.str.139 = private unnamed_addr constant [30 x i8] c"1on_TfHandle_moved(TFHandle*)\00", align 1
@.str.140 = private unnamed_addr constant [20 x i8] c"2clicked(TFHandle*)\00", align 1
@.str.141 = private unnamed_addr constant [32 x i8] c"1on_TfHandle_clicked(TFHandle*)\00", align 1
@.str.142 = private unnamed_addr constant [26 x i8] c"2doubleClicked(TFHandle*)\00", align 1
@.str.143 = private unnamed_addr constant [38 x i8] c"1on_TfHandle_doubleClicked(TFHandle*)\00", align 1

; Function Attrs: mustprogress uwtable
define linkonce_odr noundef nonnull align 8 dereferenceable(8) ptr @_ZN5QListIP8TFHandleElsERKS1_(ptr noundef nonnull align 8 dereferenceable(8) %0, ptr noundef nonnull align 8 dereferenceable(8) %1) #5 comdat align 2 {
  %3 = alloca ptr, align 8
  %4 = alloca ptr, align 8
  store ptr %0, ptr %3, align 8
  store ptr %1, ptr %4, align 8
  %5 = load ptr, ptr %3, align 8
  %6 = load ptr, ptr %4, align 8
  call void @_ZN5QListIP8TFHandleE6appendERKS1_(ptr noundef nonnull align 8 dereferenceable(8) %5, ptr noundef nonnull align 8 dereferenceable(8) %6)
  ret ptr %5
}

; Function Attrs: mustprogress nounwind uwtable
define linkonce_odr noundef i32 @_ZN8TFHandle10getChannelEv(ptr noundef nonnull align 8 dereferenceable(81) %0) #4 comdat align 2 {
  %2 = alloca ptr, align 8
  store ptr %0, ptr %2, align 8
  %3 = load ptr, ptr %2, align 8
  %4 = getelementptr inbounds %class.TFHandle, ptr %3, i32 0, i32 1
  %5 = load i32, ptr %4, align 8
  ret i32 %5
}

; Function Attrs: mustprogress uwtable
define noundef ptr @_ZN19QualityMapperDialog11addTfHandleEP8TFHandle(ptr noundef nonnull align 8 dereferenceable(824) %0, ptr noundef %1) #5 align 2 {
  %3 = alloca ptr, align 8
  %4 = alloca ptr, align 8
  %5 = alloca %"class.QMetaObject::Connection", align 8
  %6 = alloca %"class.QMetaObject::Connection", align 8
  %7 = alloca %"class.QMetaObject::Connection", align 8
  %8 = alloca %"class.QMetaObject::Connection", align 8
  store ptr %0, ptr %3, align 8
  store ptr %1, ptr %4, align 8
  %9 = load ptr, ptr %3, align 8
  %10 = getelementptr inbounds %class.QualityMapperDialog, ptr %9, i32 0, i32 16
  %11 = load ptr, ptr %4, align 8
  %12 = call noundef i32 @_ZN8TFHandle10getChannelEv(ptr noundef nonnull align 8 dereferenceable(81) %11)
  %13 = sext i32 %12 to i64
  %14 = getelementptr inbounds [3 x %class.QList.22], ptr %10, i64 0, i64 %13
  %15 = call noundef nonnull align 8 dereferenceable(8) ptr @_ZN5QListIP8TFHandleElsERKS1_(ptr noundef nonnull align 8 dereferenceable(8) %14, ptr noundef nonnull align 8 dereferenceable(8) %4)
  %16 = load ptr, ptr %4, align 8
  call void @_ZN7QObject7connectEPKS_PKcS1_S3_N2Qt14ConnectionTypeE(ptr dead_on_unwind writable sret(%"class.QMetaObject::Connection") align 8 %5, ptr noundef %16, ptr noundef @.str.138, ptr noundef %9, ptr noundef @.str.139, i32 noundef 0)
  call void @_ZN11QMetaObject10ConnectionD1Ev(ptr noundef nonnull align 8 dereferenceable(8) %5) #3
  %17 = load ptr, ptr %4, align 8
  call void @_ZN7QObject7connectEPKS_PKcS1_S3_N2Qt14ConnectionTypeE(ptr dead_on_unwind writable sret(%"class.QMetaObject::Connection") align 8 %6, ptr noundef %17, ptr noundef @.str.140, ptr noundef %9, ptr noundef @.str.141, i32 noundef 0)
  call void @_ZN11QMetaObject10ConnectionD1Ev(ptr noundef nonnull align 8 dereferenceable(8) %6) #3
  %18 = load ptr, ptr %4, align 8
  call void @_ZN7QObject7connectEPKS_PKcS1_S3_N2Qt14ConnectionTypeE(ptr dead_on_unwind writable sret(%"class.QMetaObject::Connection") align 8 %7, ptr noundef %18, ptr noundef @.str.142, ptr noundef %9, ptr noundef @.str.143, i32 noundef 0)
  call void @_ZN11QMetaObject10ConnectionD1Ev(ptr noundef nonnull align 8 dereferenceable(8) %7) #3
  %19 = load ptr, ptr %4, align 8
  call void @_ZN7QObject7connectEPKS_PKcS1_S3_N2Qt14ConnectionTypeE(ptr dead_on_unwind writable sret(%"class.QMetaObject::Connection") align 8 %8, ptr noundef %19, ptr noundef @.str.121, ptr noundef %9, ptr noundef @.str.122, i32 noundef 0)
  call void @_ZN11QMetaObject10ConnectionD1Ev(ptr noundef nonnull align 8 dereferenceable(8) %8) #3
  %20 = getelementptr inbounds %class.QualityMapperDialog, ptr %9, i32 0, i32 14
  %21 = load ptr, ptr %4, align 8
  %22 = icmp eq ptr %21, null
  br i1 %22, label %25, label %23

23:                                               ; preds = %2
  %24 = getelementptr inbounds i8, ptr %21, i64 16
  br label %25

25:                                               ; preds = %23, %2
  %26 = phi ptr [ %24, %23 ], [ null, %2 ]
  call void @_ZN14QGraphicsScene7addItemEP13QGraphicsItem(ptr noundef nonnull align 8 dereferenceable(16) %20, ptr noundef %26)
  %27 = load ptr, ptr %4, align 8
  ret ptr %27
}