; Function Attrs: mustprogress uwtable
define noundef ptr @_ZN19QualityMapperDialog11addTfHandleEP8TFHandle(ptr noundef nonnull align 8 dereferenceable(824) %0, ptr noundef %1) local_unnamed_addr #9 align 2 {
  %3 = alloca ptr, align 8
  %4 = alloca %"class.QMetaObject::Connection", align 8
  %5 = alloca %"class.QMetaObject::Connection", align 8
  %6 = alloca %"class.QMetaObject::Connection", align 8
  %7 = alloca %"class.QMetaObject::Connection", align 8
  store ptr %1, ptr %3, align 8
  %8 = getelementptr inbounds i8, ptr %0, i64 728
  %9 = getelementptr inbounds i8, ptr %1, i64 64
  %10 = load i32, ptr %9, align 8
  %11 = sext i32 %10 to i64
  %12 = getelementptr inbounds [3 x %class.QList.22], ptr %8, i64 0, i64 %11
  call void @_ZN5QListIP8TFHandleE6appendERKS1_(ptr noundef nonnull align 8 dereferenceable(8) %12, ptr noundef nonnull align 8 dereferenceable(8) %3)
  %13 = load ptr, ptr %3, align 8
  call void @_ZN7QObject7connectEPKS_PKcS1_S3_N2Qt14ConnectionTypeE(ptr dead_on_unwind nonnull writable sret(%"class.QMetaObject::Connection") align 8 %4, ptr noundef %13, ptr noundef nonnull @.str.138, ptr noundef nonnull %0, ptr noundef nonnull @.str.139, i32 noundef 0)
  call void @_ZN11QMetaObject10ConnectionD1Ev(ptr noundef nonnull align 8 dereferenceable(8) %4) #23
  %14 = load ptr, ptr %3, align 8
  call void @_ZN7QObject7connectEPKS_PKcS1_S3_N2Qt14ConnectionTypeE(ptr dead_on_unwind nonnull writable sret(%"class.QMetaObject::Connection") align 8 %5, ptr noundef %14, ptr noundef nonnull @.str.140, ptr noundef nonnull %0, ptr noundef nonnull @.str.141, i32 noundef 0)
  call void @_ZN11QMetaObject10ConnectionD1Ev(ptr noundef nonnull align 8 dereferenceable(8) %5) #23
  %15 = load ptr, ptr %3, align 8
  call void @_ZN7QObject7connectEPKS_PKcS1_S3_N2Qt14ConnectionTypeE(ptr dead_on_unwind nonnull writable sret(%"class.QMetaObject::Connection") align 8 %6, ptr noundef %15, ptr noundef nonnull @.str.142, ptr noundef nonnull %0, ptr noundef nonnull @.str.143, i32 noundef 0)
  call void @_ZN11QMetaObject10ConnectionD1Ev(ptr noundef nonnull align 8 dereferenceable(8) %6) #23
  %16 = load ptr, ptr %3, align 8
  call void @_ZN7QObject7connectEPKS_PKcS1_S3_N2Qt14ConnectionTypeE(ptr dead_on_unwind nonnull writable sret(%"class.QMetaObject::Connection") align 8 %7, ptr noundef %16, ptr noundef nonnull @.str.121, ptr noundef nonnull %0, ptr noundef nonnull @.str.122, i32 noundef 0)
  call void @_ZN11QMetaObject10ConnectionD1Ev(ptr noundef nonnull align 8 dereferenceable(8) %7) #23
  %17 = getelementptr inbounds i8, ptr %0, i64 704
  %18 = load ptr, ptr %3, align 8
  %19 = icmp eq ptr %18, null
  %20 = getelementptr inbounds i8, ptr %18, i64 16
  %spec.select = select i1 %19, ptr null, ptr %20
  call void @_ZN14QGraphicsScene7addItemEP13QGraphicsItem(ptr noundef nonnull align 8 dereferenceable(16) %17, ptr noundef %spec.select)
  %21 = load ptr, ptr %3, align 8
  ret ptr %21
}